; Function Attrs: mustprogress uwtable
define hidden noundef i32 @_ZN4cvc58internal6theory5arith6linear14ArithVariables16allocateVariableEv(ptr noundef nonnull align 8 dereferenceable(568) %this) local_unnamed_addr #3 align 2 personality ptr @__gxx_personality_v0 {
entry:
  %ref.tmp = alloca %"class.cvc5::internal::theory::arith::linear::ArithVariables::VarInfo", align 8
  %d_pool = getelementptr inbounds i8, ptr %this, i64 152
  %0 = load ptr, ptr %d_pool, align 8
  %_M_finish.i.i = getelementptr inbounds i8, ptr %this, i64 160
  %1 = load ptr, ptr %_M_finish.i.i, align 8
  %cmp.i.i = icmp eq ptr %0, %1
  br i1 %cmp.i.i, label %if.then, label %if.end

if.then:                                          ; preds = %entry
  tail call void @_ZN4cvc58internal6theory5arith6linear14ArithVariables24attemptToReclaimReleasedEv(ptr noundef nonnull align 8 dereferenceable(568) %this)
  %.pre = load ptr, ptr %d_pool, align 8
  %.pre5 = load ptr, ptr %_M_finish.i.i, align 8
  br label %if.end

if.end:                                           ; preds = %if.then, %entry
  %2 = phi ptr [ %.pre5, %if.then ], [ %1, %entry ]
  %3 = phi ptr [ %.pre, %if.then ], [ %0, %entry ]
  %cmp.i.i3 = icmp eq ptr %3, %2
  br i1 %cmp.i.i3, label %if.else, label %if.then4

if.then4:                                         ; preds = %if.end
  %add.ptr.i.i = getelementptr inbounds i8, ptr %2, i64 -4
  %4 = load i32, ptr %add.ptr.i.i, align 4
  store ptr %add.ptr.i.i, ptr %_M_finish.i.i, align 8
  br label %if.end9

if.else:                                          ; preds = %if.end
  %d_numberOfVariables = getelementptr inbounds i8, ptr %this, i64 144
  %5 = load i32, ptr %d_numberOfVariables, align 8
  %inc = add i32 %5, 1
  store i32 %inc, ptr %d_numberOfVariables, align 8
  br label %if.end9

if.end9:                                          ; preds = %if.else, %if.then4
  %varX.0 = phi i32 [ %4, %if.then4 ], [ %5, %if.else ]
  call void @_ZN4cvc58internal6theory5arith6linear14ArithVariables7VarInfoC2Ev(ptr noundef nonnull align 8 dereferenceable(113) %ref.tmp)
  invoke void @_ZN4cvc58internal8DenseMapINS0_6theory5arith6linear14ArithVariables7VarInfoEE3setEjRKS6_(ptr noundef nonnull align 8 dereferenceable(72) %this, i32 noundef %varX.0, ptr noundef nonnull align 8 dereferenceable(113) %ref.tmp)
          to label %invoke.cont unwind label %lpad

invoke.cont:                                      ; preds = %if.end9
  call void @_ZN4cvc58internal6theory5arith6linear14ArithVariables7VarInfoD2Ev(ptr noundef nonnull align 8 dereferenceable(113) %ref.tmp) #25
  ret i32 %varX.0

lpad:                                             ; preds = %if.end9
  %6 = landingpad { ptr, i32 }
          cleanup
  call void @_ZN4cvc58internal6theory5arith6linear14ArithVariables7VarInfoD2Ev(ptr noundef nonnull align 8 dereferenceable(113) %ref.tmp) #25
  resume { ptr, i32 } %6
}